; Function Attrs: mustprogress nofree norecurse nounwind willreturn uwtable
define void @_ZN5arrow11RecordBatchC2ERKSt10shared_ptrINS_6SchemaEEl(ptr noundef nonnull writeonly align 8 captures(none) dereferenceable(32) initializes((0, 32)) %0, ptr noundef nonnull readonly align 8 captures(none) dereferenceable(16) %1, i64 noundef %2) unnamed_addr #4 align 2 personality ptr @__gxx_personality_v0 {
  store ptr getelementptr inbounds nuw inrange(-16, 136) (i8, ptr @_ZTVN5arrow11RecordBatchE, i64 16), ptr %0, align 8, !tbaa !56
  %4 = getelementptr inbounds nuw i8, ptr %0, i64 8
  %5 = load ptr, ptr %1, align 8, !tbaa !59
  store ptr %5, ptr %4, align 8, !tbaa !59
  %6 = getelementptr inbounds nuw i8, ptr %0, i64 16
  %7 = getelementptr inbounds nuw i8, ptr %1, i64 8
  %8 = load ptr, ptr %7, align 8, !tbaa !51
  store ptr %8, ptr %6, align 8, !tbaa !51
  %.not.i.i.i = icmp eq ptr %8, null
  br i1 %.not.i.i.i, label %_ZNSt10shared_ptrIN5arrow6SchemaEEC2ERKS2_.exit, label %9

9:                                                ; preds = %3
  %10 = getelementptr inbounds nuw i8, ptr %8, i64 8
  %11 = load i8, ptr @__libc_single_threaded, align 1, !tbaa !39
  %.not.i.i.i.i = icmp eq i8 %11, 0
  br i1 %.not.i.i.i.i, label %15, label %12

12:                                               ; preds = %9
  %13 = load i32, ptr %10, align 4, !tbaa !52
  %14 = add nsw i32 %13, 1
  store i32 %14, ptr %10, align 4, !tbaa !52
  br label %_ZNSt10shared_ptrIN5arrow6SchemaEEC2ERKS2_.exit

15:                                               ; preds = %9
  %16 = atomicrmw volatile add ptr %10, i32 1 acq_rel, align 4
  br label %_ZNSt10shared_ptrIN5arrow6SchemaEEC2ERKS2_.exit

_ZNSt10shared_ptrIN5arrow6SchemaEEC2ERKS2_.exit:  ; preds = %3, %12, %15
  %17 = getelementptr inbounds nuw i8, ptr %0, i64 24
  store i64 %2, ptr %17, align 8, !tbaa !62
  ret void
}